(dp1
S'output'
p2
S"<type 'exceptions.AttributeError'> 'NoneType' object has no attribute 'liked'"
p3
sS'layer'
p4
S'/Users/admin/UNI/BECAS/California/WINTER/CMPS 183 WA/web2py/web2py.app/Contents/Resources/applications/WagMore/controllers/default.py'
p5
sS'code'
p6
S'from datetime import datetime\nimport maskingpersonality\nimport matchTest\n\nimport urllib2\nimport json\n\ndef bitMask(form, profileMask):\n    if len(profileMask.select()[0].interestMask)>30:\n        return\n    for value in form:\n        previousMask=profileMask.select()[0].interestMask\n        if value==False:\n            profileMask.update(interestMask=previousMask+\'0\')\n        if value==True:\n            profileMask.update(interestMask=previousMask+\'1\')\n    return\n\n\ndef checkProfileCompletion(profile):\n    if(db(db.images.id==profile.id).count()==0):\n        print("User with id number %d hasn\'t completed their profile pictures"%(profile.id))\n        redirect(URL(\'createProfile2\'))\n    if(db(db.interestFood.id==profile.id).count()==0):\n        redirect(URL(\'createProfile_interests\',args="Remake"))\n    if(db(db.interestActivities.id==profile.id).count()==0):\n        redirect(URL(\'createProfile_interests\',args="Remake"))\n    if(db(db.interestSports.id==profile.id).count()==0):\n        redirect(URL(\'createProfile_interests\',args="Remake"))\n    if(db(db.interestHobbies.id==profile.id).count()==0):\n        redirect(URL(\'createProfile_interests\',args="Remake"))\n    if(db(db.interestPlaces.id==profile.id).count()==0):\n        redirect(URL(\'createProfile_interests\',args="Remake"))\n    if(db(db.question1.id==profile.id).count()==0):\n        redirect(URL(\'questions1\',args="Remake"))\n    if(db(db.question2.id==profile.id).count()==0):\n        redirect(URL(\'questions2\',args="Remake"))\n    if(db(db.question3.id==profile.id).count()==0):\n        redirect(URL(\'questions3\',args="Remake"))\n    if(db(db.question4.id==profile.id).count()==0):\n        redirect(URL(\'questions4\',args="Remake"))\n    return\n\n@auth.requires_login()\ndef changeBio():\n    profileID=request.args(0, cast=int)\n    if(profileID!=auth.user.id):\n        redirect(URL(\'profiles\'))\n    profile = db.profile(profileID) or redirect(URL(\'index\'))\n    return dict(profile=profile)\n\n@auth.requires_login()\ndef updateBio():\n    print(request.args(0))\n    profile=db(db.profile.id==request.args(0))\n    newBio=request.vars.newBio\n    newDogsBio=request.vars.newDogsBio\n    if len(newBio)!=0:\n        profile.update(bio=newBio)\n    if len(newDogsBio)!=0:\n        profile.update(dogBio=newDogsBio)\n    redirect(URL(\'default\', \'show\', args=[auth.user.id,-1]))\n    \n@auth.requires_login()\ndef changeDog():\n    if(request.args(0,cast=int)!=auth.user.id):\n        redirect(URL(\'profiles\'))\n    images = db().select(db.images.ALL)\n    images = db.images[request.args(0,cast=int)]\n    if not (images and images.id == auth.user_id):\n        redirect(URL(\'index\'))\n    form = SQLFORM(db.images, images,\n                   deletable=True,\n                   )\n    if form.process(keepvalues=True).accepted:\n        response.flash = \'post accepted\'\n        redirect(URL(\'default\', \'show\', args=[auth.user.id,-1]))\n\n    return dict(form=form, images=images)\n\ndef updateLocation():\n        # Automatically geolocate the connecting IP\n    try:\n        aux=\'https://freegeoip.net/json/\'\n        f = urllib2.urlopen(aux)\n        json_string = f.read()\n        f.close()\n        location = json.loads(json_string)\n        location_city = location[\'city\']\n        location_state = location[\'region_name\']\n        location_country = location[\'country_name\']\n        db(db.profile.id==auth.user.id).update(locationLong=location[\'longitude\'],locationLat=location[\'latitude\'], city=location[\'city\'])\n    except:\n        print "Error getting location"\n\n\n@auth.requires_login()\ndef matchReload():\n    print("Calculating your matches! Please wait...")\n    db.profile.id.default = auth.user.id\n    profile1 = db(db.profile.id == auth.user.id)\n    profiles = db(db.profile.id != auth.user.id)\n    ##db(db.matchTable.idFromMatch==auth.user.id).delete()\n    if (len(profile1.select()[0].locationLat)==0 or len(profile1.select()[0].locationLong)==0):\n        response.flash="We need your location to find matches!"\n        updateLocation()\n        return;\n    for profile in profiles.select():\n        profile2 = db(db.profile.id == profile.id)\n        # if matchLocat > 25.0:\n        #    print("Too far away! Person won\'t show up in matches!")\n        if matchTest.lookingforConstraint(profile1, profile2) == True:\n            print("Match with same interest")\n        else:\n            print("Not a match")\n        matchPercen = matchTest.testAdven(profile1, profile2)\n        distance=matchTest.calcDistance(profile1, profile2)\n        if (matchPercen > 39 and db((db.matchTable.idFromMatch == auth.user.id) & (db.matchTable.idToMatch ==\n            profile2.select()[0].id)).count() == 0):\n            db.matchTable.insert(idToMatch=profile2.select()[0].id, percentage=matchPercen, idFromMatch=auth.user.id,\n                                 images_id=profile2.select()[0].id,distance=distance)\n    \n\n@auth.requires_login()\ndef profiles():\n\n    if(db(db.profile.id==auth.user.id).count()==0):\n        redirect(URL(\'mainPage\'))\n    checkProfileCompletion(db(db.profile.id == auth.user.id).select()[0])\n\n    if (request.args(0)=="ReloadMatches"):\n        updateLocation()\n        matchReload()\n        showBlocked=False\n    elif request.args(0)=="blocked":\n        showBlocked=True\n    else:\n        showBlocked=False\n\n\n            #____________________ACTUAL DATABASE ACCESS/MANIPULATION STARTS HERE__________________________\n\n    myList = []\n    theyBlockedYou = []\n\n    matches = db(db.matchTable.idFromMatch == auth.user.id)\n    numberOfMatches = matches.count()\n    numberOfBlocked = matches(db.matchTable.blocked==True).count()\n    matches = matches.select(db.matchTable.ALL, orderby=~db.matchTable.percentage, limitby=(0,10))\n\n\n\n    for match in matches:\n        otherMatch = db((db.matchTable.idFromMatch == match.idToMatch) & (db.matchTable.idToMatch == auth.user.id))\n        if (otherMatch.count() > 0):\n            otherMatchID = db((db.matchTable.idFromMatch == match.idToMatch) & (db.matchTable.idToMatch == auth.user.id)).select()[0].id\n        else:\n            otherMatchID = -1\n        messagesToOpen = db(((db.post.item_id == match.id) | (db.post.item_id == otherMatchID)) & (db.post.fromid != auth.user.id) & (db.post.opened == False)).count()\n        myList.append(messagesToOpen)\n\n        if db((db.matchTable.idFromMatch==match.idToMatch) & (db.matchTable.idToMatch==match.idFromMatch)).select().first() != None:\n            didTheyBlockYou = db((db.matchTable.idFromMatch==match.idToMatch) & (db.matchTable.idToMatch==match.idFromMatch)).select().first().blocked\n            if didTheyBlockYou == True:\n                theyBlockedYou.append(1)\n            else:\n                theyBlockedYou.append(0)\n        else:\n            theyBlockedYou.append(0)\n\n\n    return dict(matches=matches, numberOfMatches=numberOfMatches, numberOfBlocked=numberOfBlocked, showBlocked=showBlocked, profiles=profiles, myList=myList, theyBlockedYou=theyBlockedYou)\n\n\ndef person_selector():\n    if not request.vars.person:\n        return \'\'\n    pattern = request.vars.person.capitalize() + \'%\'\n    myList = []\n\n    matches = db(db.matchTable.idFromMatch == auth.user.id)\n    matches = matches.select(db.matchTable.ALL, orderby=~db.matchTable.percentage)\n    i = 0\n    row = matches.first()\n    profiles = db((db.profile.id == row.idToMatch) & (db.profile.name.like(pattern))).select()\n    myList.append(row.id)\n    for match in matches:\n        if i > 0:\n            profiles = profiles & db((db.profile.id == match.idToMatch) & (db.profile.name.like(pattern))).select()\n            myList.append(match.id)\n        i += 1\n\n    return \'\'.join([DIV(k.name,\n                 _onclick="window.location = \'/Wagmore_beta/default/show/%d/%d\'" % (k.id, myList[i]),\n                 _onmouseover="this.style.backgroundColor=\'yellow\',this.style.cursor=\'pointer\'",\n                 _onmouseout="this.style.backgroundColor=\'white\'"\n                 ).xml() for i,k in enumerate(profiles)])\n\n\ndef search():\n    myList = []\n    showBlocked = False\n    pattern = \'%\'\n    if not request.vars.person:\n        pattern = \'%\'\n    pattern = request.vars.person.capitalize() + \'%\'\n\n    matches = db(db.matchTable.idFromMatch == auth.user.id)\n    matches = matches.select(db.matchTable.ALL, orderby=~db.matchTable.percentage)\n\n    i = 0\n    row = matches.first()\n    profiles = db((db.profile.id == row.idToMatch) & (db.profile.name.like(pattern))).select()\n    for match in matches:\n        if i > 0:\n            profiles = profiles & db((db.profile.id == match.idToMatch) & (db.profile.name.like(pattern))).select()\n        i += 1\n\n\n    i = 0\n    row = profiles.first()\n    matches = db((db.matchTable.idToMatch == row.id) & (db.matchTable.idFromMatch == auth.user.id)).select()\n    for prof in profiles:\n        if i > 0:\n            matches = matches & db((db.matchTable.idToMatch == prof.id) & (db.matchTable.idFromMatch == auth.user.id)).select()\n        i += 1\n\n\n    for match in matches:\n        otherMatch = db((db.matchTable.idFromMatch == match.idToMatch) & (db.matchTable.idToMatch == auth.user.id))\n        if (otherMatch.count() > 0):\n            otherMatchID = db((db.matchTable.idFromMatch == match.idToMatch) & (db.matchTable.idToMatch == auth.user.id)).select()[0].id\n        else:\n            otherMatchID = -1\n        messagesToOpen = db(((db.post.item_id == match.id) | (db.post.item_id == otherMatchID)) & (db.post.fromid != auth.user.id) & (db.post.opened == False)).count()\n        myList.append(messagesToOpen)\n\n\n    return dict(matches=matches , showBlocked=showBlocked, myList=myList, profiles=profiles)\n\ndef getLikes():\n    matches = db(db.matchTable.idFromMatch == auth.user.id)\n    matches = matches.select(db.matchTable.ALL)\n\n    i = 0\n    row = matches.first()\n    likedMatches = db((db.matchTable.idFromMatch == row.idToMatch) & (db.matchTable.idToMatch == row.idFromMatch) & (db.matchTable.liked==True)).select()\n    for match in matches:\n        if i > 0:\n            likedMatches = likedMatches & db((db.matchTable.idFromMatch == match.idToMatch) & (db.matchTable.idToMatch == match.idFromMatch) & (db.matchTable.liked==True)).select()\n        i += 1\n\n    myList = []\n    i = 0\n    row = likedMatches.first()\n    likedProfiles = db(db.profile.id == row.idFromMatch).select()\n    myList.append(db((db.matchTable.idFromMatch == row.idToMatch) & (db.matchTable.idToMatch == row.idFromMatch)).select().first().id)\n    for match in likedMatches:\n        if i > 0:\n            likedProfiles = likedProfiles & db(db.profile.id == match.idFromMatch).select()\n            myList.append(db((db.matchTable.idFromMatch == match.idToMatch) & (db.matchTable.idToMatch == match.idFromMatch)).select().first().id)\n        i += 1\n\n    return \'\'.join([DIV(k.name,\n                 _onclick="window.location = \'/Wagmore_beta/default/show/%d/%d\'" % (k.id, myList[i]),\n                 _onmouseover="this.style.backgroundColor=\'yellow\',this.style.cursor=\'pointer\'",\n                 _onmouseout="this.style.backgroundColor=\'white\'"\n                 ).xml() for i,k in enumerate(likedProfiles)])\n\n\ndef getMessages():\n\n    matches = db(db.matchTable.idFromMatch == auth.user.id)\n    matches = matches.select(db.matchTable.ALL, orderby=~db.matchTable.percentage)\n\n    myList = []\n    for match in matches:\n        otherMatch = db((db.matchTable.idFromMatch == match.idToMatch) & (db.matchTable.idToMatch == auth.user.id))\n        if (otherMatch.count() > 0):\n            otherMatchID = db((db.matchTable.idFromMatch == match.idToMatch) & (db.matchTable.idToMatch == auth.user.id)).select()[0].id\n        else:\n            otherMatchID = -1\n\n        messagesToOpen = db(((db.post.item_id == match.id) | (db.post.item_id == otherMatchID)) & (db.post.fromid != auth.user.id) & (db.post.opened == False)).count()\n        if messagesToOpen > 0:\n            # unreadMatches = unreadMatches & db(db.matchTable.id == match.id).select()\n            myList.append(match.id)\n\n    i = 0\n    unreadMatches = db(db.matchTable.id == myList[0]).select()\n    for item in myList:\n        if i > 0:\n            unreadMatches = unreadMatches & db(db.matchTable.id == item).select()\n        i += 1\n\n\n    i = 0\n    myList = []\n    row = unreadMatches.first()\n    unreadProfiles = db(db.profile.id == row.idToMatch).select()\n    myList.append(row.id)\n    for match in unreadMatches:\n        if i > 0:\n            unreadProfiles = unreadProfiles & db(db.profile.id == match.idToMatch).select()\n            myList.append(match.id)\n        i += 1\n\n    return \'\'.join([DIV(k.name,\n                 _onclick="window.location = \'/Wagmore_beta/default/show/%d/%d\'" % (k.id, myList[i]),\n                 _onmouseover="this.style.backgroundColor=\'yellow\',this.style.cursor=\'pointer\'",\n                 _onmouseout="this.style.backgroundColor=\'white\'"\n                 ).xml() for i,k in enumerate(unreadProfiles)])\n\ndef unseeMessages():\n    return ""\n\ndef unseeLikes():\n    return ""\n\n\ndef likePerson():\n    matches = db((db.matchTable.idFromMatch == auth.user.id) & (db.matchTable.idToMatch == request.args(0, cast=int)))\n    matches = matches.select(db.matchTable.ALL)\n    match = matches.first()\n    match.update_record(liked=True)\n\n    return "Liked :)"\n\ndef unlikePerson():\n    matches = db((db.matchTable.idFromMatch == auth.user.id) & (db.matchTable.idToMatch == request.args(0, cast=int)))\n    matches = matches.select(db.matchTable.ALL)\n    match = matches.first()\n    match.update_record(liked=False)\n\n    return "Unliked :("\n\ndef checkifLiked():\n    matches = db((db.matchTable.idFromMatch == auth.user.id) & (db.matchTable.idToMatch == request.args(0, cast=int)))\n    matches = matches.select(db.matchTable.ALL)\n    match = matches.first()\n\n    return match.liked\n\n\n\n\ndef blockPerson():\n    prevValue=db((db.matchTable.idFromMatch==auth.user.id) & (db.matchTable.idToMatch==request.args(0, cast=int))).select()[0].blocked\n    db((db.matchTable.idFromMatch==auth.user.id) & (db.matchTable.idToMatch==request.args(0, cast=int))).update(blocked=not prevValue)\n    redirect(URL(\'profiles\'))\n\ndef index():\n    if auth.is_logged_in():\n        redirect(URL(\'profiles\'))\n    return dict()\n\ndef first():\n    return dict()\n\n\ndef second():\n    return dict()\n\n\ndef loginpage():\n    return dict()\n\n\ndef signuppage():\n    return dict()\n\n\ndef signuppage2():\n    return dict()\n\n\n@auth.requires_login()\ndef createProfile2():\n    updateLocation()\n    db(db.images.id==auth.user.id).delete()\n    db.images.id.default = auth.user.id\n    form = SQLFORM(db.images)\n    if form.process().accepted:\n        response.flash = \'form accepted\'\n        redirect(URL("createProfile_interests"))\n    elif form.errors:\n        response.flash = \'form has errors\'\n    else:\n        response.flash = \'please fill out the form\'\n    return dict(form=form)\n\n\n@auth.requires_login()\ndef createProfile_interests():\n    db(db.interestFood.id==auth.user.id).delete()\n    db.interestFood.id.default = auth.user.id\n    form = SQLFORM(db.interestFood)\n    if form.process().accepted:\n        response.flash = \'form accepted\'\n        # Modifiying the profile mask\n        profileMask = db(db.profile.id == auth.user.id)\n        profileMask.update(interestMask=\'\')\n        # function in maskModule.py (in the module folder of the application)\n        bitMask(form.vars.values(), profileMask)\n        if (request.args(0)=="Remake"):\n            redirect(URL("createProfile_interest_2",args="Remake"))\n        redirect(URL("createProfile_interest_2"))\n    return dict(form=form)\n\n@auth.requires_login()\ndef video():\n\n    if(request.args(0,cast=int)!=auth.user.id):\n        redirect(URL(\'profiles\'))\n    images = db().select(db.images.ALL)\n    images = db.images[request.args(0,cast=int)]\n    if not (images and images.id == auth.user_id):\n        redirect(URL(\'index\'))\n    form = SQLFORM(db.images, images,\n                   deletable=True,\n                   )\n\n    if form.process(keepvalues=True).accepted:\n        response.flash = \'post accepted\'\n        redirect(URL(\'default\', \'show\', args=[auth.user.id,-1]))\n\n    return dict(form=form,images=images)\n\n@auth.requires_login()\ndef morepictures():\n    if(request.args(0,cast=int)!=auth.user.id):\n        redirect(URL(\'profiles\'))\n    images = db().select(db.images.ALL)\n    images = db.images[request.args(0)]\n    if not (images and images.id == auth.user_id):\n        redirect(URL(\'index\'))\n    form = SQLFORM(db.images, images,\n                   deletable=True,\n                   )\n    if form.process(keepvalues=True).accepted:\n        response.flash = \'post accepted\'\n        redirect(URL(\'default\', \'show\', args=[auth.user.id,-1]))\n\n    return dict(form=form, images=images)\n\n\n@auth.requires_login()\ndef createProfile_interest_2():\n    db(db.interestActivities.id==auth.user.id).delete()\n    db.interestActivities.id.default = auth.user.id\n    form = SQLFORM(db.interestActivities)\n    if form.process().accepted:\n        response.flash = \'form accepted\'\n        profileMask = db(db.profile.id == auth.user.id)\n        bitMask(form.vars.values(), profileMask)\n        if (request.args(0)=="Remake"):\n            redirect(URL("createProfile_interest_3",args="Remake"))\n        redirect(URL("createProfile_interest_3"))\n    return dict(form=form)\n\n@auth.requires_login()\ndef createProfile_interest_3():\n    db(db.interestSports.id==auth.user.id).delete()\n    db.interestSports.id.default = auth.user.id\n    form = SQLFORM(db.interestSports)\n    if form.process().accepted:\n        response.flash = \'form accepted\'\n        profileMask = db(db.profile.id == auth.user.id)\n        bitMask(form.vars.values(), profileMask)\n        if (request.args(0)=="Remake"):\n            redirect(URL("createProfile_interest_4",args="Remake"))\n        redirect(URL("createProfile_interest_4"))\n    return dict(form=form)\n\n@auth.requires_login()\ndef createProfile_interest_4():\n    db(db.interestHobbies.id==auth.user.id).delete()\n    db.interestHobbies.id.default = auth.user.id\n    form = SQLFORM(db.interestHobbies)\n    if form.process().accepted:\n        response.flash = \'form accepted\'\n        profileMask = db(db.profile.id == auth.user.id)\n        bitMask(form.vars.values(), profileMask)\n        if (request.args(0)=="Remake"):\n            redirect(URL("createProfile_interest_5",args="Remake"))\n        redirect(URL("createProfile_interest_5"))\n    return dict(form=form)\n\n@auth.requires_login()\ndef createProfile_interest_5():\n    db(db.interestPlaces.id==auth.user.id).delete()\n    db.interestPlaces.id.default = auth.user.id\n    form = SQLFORM(db.interestPlaces)\n    if form.process().accepted:\n        response.flash = \'form accepted\'\n        profileMask = db(db.profile.id == auth.user.id)\n        bitMask(form.vars.values(), profileMask)\n        if request.args(0)=="Remake":\n            redirect(URL("profiles"))\n        redirect(URL("questions1"))\n    return dict(form=form)\n\n\n\ndef createProfile_aboutYourself():\n    return dict()\n\n\ndef createProfile_confirmation():\n    return dict()\n\n@auth.requires_login()\ndef show():\n    profileID=request.args(0, cast=int)\n    matchID=request.args(1,cast=int)\n    profile = db.profile(profileID) or redirect(URL(\'index\'))\n    image = db.images(profileID) or redirect(URL(\'index\'))\n    #If match id the user is trying to view its profile\n    \n    if(matchID!=-1):\n\n        # If the other person matched already sent youa message, there will be an ID for your message chat already\n        testAlready=db((db.matchTable.idFromMatch==profileID) & (db.matchTable.idToMatch==auth.user.id))\n        if(testAlready.count()!=0 and db(db.post.item_id==testAlready.select()[0].id).count()!=0):\n            matchID=testAlready.select()[0].id\n        db.post.item_id.default = matchID\n        db.post.author.default = auth.user.first_name\n        db.post.fromid.default = auth.user.id\n        form = SQLFORM(db.post, labels = {\'photo\':\'Send a photo!\', \'video\':\'Send a video!\'}, submit_button=\'Send!\')\n        if form.process().accepted:\n            response.flash = \'Your comment is posted!\'\n        comments = db(db.post.item_id == matchID).select().sort(lambda p: p.timesent, reverse=True)\n        db((db.post.item_id == matchID) & (db.post.fromid!=auth.user.id)).update(opened=True)\n        match=db(db.matchTable.id==request.args(1,cast=int)).select()[0]\n\n    else:\n        form=None\n        comments=[]\n        match=None\n\n\n    mapSource="https://www.google.com/maps/embed/v1/place?key=AIzaSyBuvFgnD0flhVwNGCHXgyjXR5JBN16pSTI&q="+ str(profile.locationLat) + \',\' + str(profile.locationLong)\n\n    return dict(profile=profile, images=image, comments=comments, form=form, match=match, mapSource=mapSource,)\n\n\n@auth.requires_login()\ndef mainPage():\n    if (db(db.profile.id == auth.user.id).count() == 1):\n        redirect(URL("index"))\n    # record = db.profile(request.args(0,cast=int)) or redirect(URL(\'index\'))\n    # db.profile.id.default=auth.user.id\n    # form = SQLFORM(db.profile,record)\n    # form = SQLFORM(db.profile, buttons = [TAG.image(_type="submit", _href=URL("user"), _src= "http://127.0.0.1:8000/WagMore/static/_2.14.6/images/nextButton.png"),TAG.button(\'Submit\',_type="submit")]) ##Wanna make the first image to work as a button\n\n    db.profile.id.default = auth.user.id\n    db.profile.name.default = auth.user.first_name + \' \' + auth.user.last_name\n    db.profile.locationLong.default = 0\n    db.profile.locationLat.default = 0\n    form = SQLFORM(db.profile)\n    if form.process().accepted:\n        response.flash = \'form accepted\'\n        redirect(URL("createProfile2"))\n    elif form.errors:\n        response.flash = \'form has errors\'\n    else:\n        response.flash = \'please fill out the form\'\n    return dict(form=form)\n\n\n# Page for managing item posts as well as the comments inside of them\n@auth.requires_membership(\'manager\')\ndef manage_users():\n    grid = SQLFORM.smartgrid(db.auth_user)\n    return dict(grid=grid)\n\n\n# Page for managing item posts as well as the comments inside of them\n@auth.requires_membership(\'manager\')\ndef manage_profiles():\n    grid = SQLFORM.smartgrid(db.profile)\n    return dict(grid=grid)\n\n\n@auth.requires_login()\ndef questions1():\n    db(db.question1.id==auth.user.id).delete()\n    db.question1.id.default = auth.user.id\n    form = SQLFORM(db.question1)\n    if form.process().accepted:\n        response.flash = \'form accepted\'\n        profileMask = db(db.profile.id == auth.user.id)\n        maskingpersonality.q1Mask(form.vars.values(), profileMask)\n        if (request.args(0)=="Remake"):\n            redirect(URL("profiles"))\n        redirect(URL("questions2"))\n    return dict(form=form)\n\n@auth.requires_login()\ndef questions2():\n    db(db.question2.id==auth.user.id).delete()\n    db.question2.id.default = auth.user.id\n    form = SQLFORM(db.question2)\n    if form.process().accepted:\n        response.flash = \'form accepted\'\n        profileMask = db(db.profile.id == auth.user.id)\n        maskingpersonality.q2Mask(form.vars.values(), profileMask)\n        if (request.args(0)=="Remake"):\n            redirect(URL("profiles"))\n        redirect(URL("questions3"))\n    return dict(form=form)\n\n@auth.requires_login()\ndef questions3():\n    db(db.question3.id==auth.user.id).delete()\n    db.question3.id.default = auth.user.id\n    form = SQLFORM(db.question3)\n    if form.process().accepted:\n        response.flash = \'form accepted\'\n        profileMask = db(db.profile.id == auth.user.id)\n        maskingpersonality.q3Mask(form.vars.values(), profileMask)\n        if (request.args(0)=="Remake"):\n            redirect(URL("profiles"))\n        redirect(URL("questions4"))\n    return dict(form=form)\n\n@auth.requires_login()\ndef questions4():\n    db(db.question4.id==auth.user.id).delete()\n    db.question4.id.default = auth.user.id\n    form = SQLFORM(db.question4)\n    if form.process().accepted:\n        response.flash = \'form accepted\'\n        profileMask = db(db.profile.id == auth.user.id)\n        maskingpersonality.q4Mask(form.vars.values(), profileMask)\n        if (request.args(0)=="Remake"):\n            redirect(URL("profiles"))\n        redirect(URL("createProfile_confirmation"))\n    return dict(form=form)\n\n\n\ndef user():\n    """\n    exposes:\n    http://..../[app]/default/user/login\n    http://..../[app]/default/user/logout\n    http://..../[app]/default/user/register\n    http://..../[app]/default/user/profile\n    http://..../[app]/default/user/retrieve_password\n    http://..../[app]/default/user/change_password\n    http://..../[app]/default/user/bulk_register\n    use @auth.requires_login()\n        @auth.requires_membership(\'group name\')\n        @auth.requires_permission(\'read\',\'table name\',record_id)\n    to decorate functions that need access control\n    also notice there is http://..../[app]/appadmin/manage/auth to allow administrator to manage users\n    """\n    auth.settings.register_next = URL("mainPage")\n    auth.settings.login_next = URL("profiles", args="ReloadMatches")\n\n    return dict(form=auth())\n\n\n@cache.action()\ndef download():\n    """\n    allows downloading of uploaded files\n    http://..../[app]/default/download/[filename]\n    """\n    return response.download(request, db)\n\n\ndef call():\n    """\n    exposes services. for example:\n    http://..../[app]/default/call/jsonrpc\n    decorate with @services.jsonrpc the functions to expose\n    supports xml, json, xmlrpc, jsonrpc, amfrpc, rss, csv\n    """\n    return service()\n\nresponse._vars=response._caller(checkifLiked)\n'
p7
sS'snapshot'
p8
(dp9
S'exception'
p10
(dp11
S'__hash__'
p12
S"<method-wrapper '__hash__' of exceptions.AttributeError object>"
p13
sS'__setattr__'
p14
S"<method-wrapper '__setattr__' of exceptions.AttributeError object>"
p15
sS'__reduce_ex__'
p16
S'<built-in method __reduce_ex__ of exceptions.AttributeError object>'
p17
sS'__getslice__'
p18
S"<method-wrapper '__getslice__' of exceptions.AttributeError object>"
p19
sS'__getitem__'
p20
S"<method-wrapper '__getitem__' of exceptions.AttributeError object>"
p21
sS'__setstate__'
p22
S'<built-in method __setstate__ of exceptions.AttributeError object>'
p23
sS'args'
p24
S'("\'NoneType\' object has no attribute \'liked\'",)'
p25
sS'__reduce__'
p26
S'<built-in method __reduce__ of exceptions.AttributeError object>'
p27
sS'__str__'
p28
S"<method-wrapper '__str__' of exceptions.AttributeError object>"
p29
sS'__format__'
p30
S'<built-in method __format__ of exceptions.AttributeError object>'
p31
sS'__getattribute__'
p32
S"<method-wrapper '__getattribute__' of exceptions.AttributeError object>"
p33
sS'__class__'
p34
S"<type 'exceptions.AttributeError'>"
p35
sS'__unicode__'
p36
S'<built-in method __unicode__ of exceptions.AttributeError object>'
p37
sS'__delattr__'
p38
S"<method-wrapper '__delattr__' of exceptions.AttributeError object>"
p39
sS'__subclasshook__'
p40
S'<built-in method __subclasshook__ of type object>'
p41
sS'__repr__'
p42
S"<method-wrapper '__repr__' of exceptions.AttributeError object>"
p43
sS'__dict__'
p44
S'{}'
p45
sS'__sizeof__'
p46
S'<built-in method __sizeof__ of exceptions.AttributeError object>'
p47
sS'__doc__'
p48
S"'Attribute not found.'"
p49
sS'__init__'
p50
S"<method-wrapper '__init__' of exceptions.AttributeError object>"
p51
sS'__new__'
p52
S'<built-in method __new__ of type object>'
p53
ssS'evalue'
p54
S"'NoneType' object has no attribute 'liked'"
p55
sS'request'
p56
cgluon.html
XML_unpickle
p57
(S's\xf8k\x00\x00<div><table><tr><td style="font-weight:bold;vertical-align:top;">ajax</td><td style="vertical-align:top;">:</td><td><div>True</div></td></tr><tr><td style="font-weight:bold;vertical-align:top;">application</td><td style="vertical-align:top;">:</td><td><div>WagMore</div></td></tr><tr><td style="font-weight:bold;vertical-align:top;">args</td><td style="vertical-align:top;">:</td><td><div><table><tr><td><div>23</div></td></tr></table></div></td></tr><tr><td style="font-weight:bold;vertical-align:top;">cid</td><td style="vertical-align:top;">:</td><td><div>None</div></td></tr><tr><td style="font-weight:bold;vertical-align:top;">client</td><td style="vertical-align:top;">:</td><td><div>127.0.0.1</div></td></tr><tr><td style="font-weight:bold;vertical-align:top;">controller</td><td style="vertical-align:top;">:</td><td><div>default</div></td></tr><tr><td style="font-weight:bold;vertical-align:top;">cookies</td><td style="vertical-align:top;">:</td><td><div><table><tr><td style="font-weight:bold;vertical-align:top;">session_id_admin</td><td style="vertical-align:top;">:</td><td><div>127.0.0.1-16c5f293-c019-4c7e-8221-00d6ec6c792c<table><tr><td style="font-weight:bold;vertical-align:top;">comment</td><td style="vertical-align:top;">:</td><td><div></div></td></tr><tr><td style="font-weight:bold;vertical-align:top;">domain</td><td style="vertical-align:top;">:</td><td><div></div></td></tr><tr><td style="font-weight:bold;vertical-align:top;">expires</td><td style="vertical-align:top;">:</td><td><div></div></td></tr><tr><td style="font-weight:bold;vertical-align:top;">httponly</td><td style="vertical-align:top;">:</td><td><div></div></td></tr><tr><td style="font-weight:bold;vertical-align:top;">max-age</td><td style="vertical-align:top;">:</td><td><div></div></td></tr><tr><td style="font-weight:bold;vertical-align:top;">path</td><td style="vertical-align:top;">:</td><td><div></div></td></tr><tr><td style="font-weight:bold;vertical-align:top;">secure</td><td style="vertical-align:top;">:</td><td><div></div></td></tr><tr><td style="font-weight:bold;vertical-align:top;">version</td><td style="vertical-align:top;">:</td><td><div></div></td></tr></table></div></td></tr><tr><td style="font-weight:bold;vertical-align:top;">session_id_resume</td><td style="vertical-align:top;">:</td><td><div>127.0.0.1-c8ab86e9-0453-4c3b-8910-d7e8f146ea7d<table><tr><td style="font-weight:bold;vertical-align:top;">comment</td><td style="vertical-align:top;">:</td><td><div></div></td></tr><tr><td style="font-weight:bold;vertical-align:top;">domain</td><td style="vertical-align:top;">:</td><td><div></div></td></tr><tr><td style="font-weight:bold;vertical-align:top;">expires</td><td style="vertical-align:top;">:</td><td><div></div></td></tr><tr><td style="font-weight:bold;vertical-align:top;">httponly</td><td style="vertical-align:top;">:</td><td><div></div></td></tr><tr><td style="font-weight:bold;vertical-align:top;">max-age</td><td style="vertical-align:top;">:</td><td><div></div></td></tr><tr><td style="font-weight:bold;vertical-align:top;">path</td><td style="vertical-align:top;">:</td><td><div></div></td></tr><tr><td style="font-weight:bold;vertical-align:top;">secure</td><td style="vertical-align:top;">:</td><td><div></div></td></tr><tr><td style="font-weight:bold;vertical-align:top;">version</td><td style="vertical-align:top;">:</td><td><div></div></td></tr></table></div></td></tr><tr><td style="font-weight:bold;vertical-align:top;">session_id_wagmore</td><td style="vertical-align:top;">:</td><td><div>127.0.0.1-5196f246-5c5a-44d5-a598-20dca84632e5<table><tr><td style="font-weight:bold;vertical-align:top;">comment</td><td style="vertical-align:top;">:</td><td><div></div></td></tr><tr><td style="font-weight:bold;vertical-align:top;">domain</td><td style="vertical-align:top;">:</td><td><div></div></td></tr><tr><td style="font-weight:bold;vertical-align:top;">expires</td><td style="vertical-align:top;">:</td><td><div></div></td></tr><tr><td style="font-weight:bold;vertical-align:top;">httponly</td><td style="vertical-align:top;">:</td><td><div></div></td></tr><tr><td style="font-weight:bold;vertical-align:top;">max-age</td><td style="vertical-align:top;">:</td><td><div></div></td></tr><tr><td style="font-weight:bold;vertical-align:top;">path</td><td style="vertical-align:top;">:</td><td><div></div></td></tr><tr><td style="font-weight:bold;vertical-align:top;">secure</td><td style="vertical-align:top;">:</td><td><div></div></td></tr><tr><td style="font-weight:bold;vertical-align:top;">version</td><td style="vertical-align:top;">:</td><td><div></div></td></tr></table></div></td></tr><tr><td style="font-weight:bold;vertical-align:top;">session_id_wagmore_gilberto</td><td style="vertical-align:top;">:</td><td><div>127.0.0.1-28b400d4-d103-4b9e-b34b-69cb0b867a45<table><tr><td style="font-weight:bold;vertical-align:top;">comment</td><td style="vertical-align:top;">:</td><td><div></div></td></tr><tr><td style="font-weight:bold;vertical-align:top;">domain</td><td style="vertical-align:top;">:</td><td><div></div></td></tr><tr><td style="font-weight:bold;vertical-align:top;">expires</td><td style="vertical-align:top;">:</td><td><div></div></td></tr><tr><td style="font-weight:bold;vertical-align:top;">httponly</td><td style="vertical-align:top;">:</td><td><div></div></td></tr><tr><td style="font-weight:bold;vertical-align:top;">max-age</td><td style="vertical-align:top;">:</td><td><div></div></td></tr><tr><td style="font-weight:bold;vertical-align:top;">path</td><td style="vertical-align:top;">:</td><td><div></div></td></tr><tr><td style="font-weight:bold;vertical-align:top;">secure</td><td style="vertical-align:top;">:</td><td><div></div></td></tr><tr><td style="font-weight:bold;vertical-align:top;">version</td><td style="vertical-align:top;">:</td><td><div></div></td></tr></table></div></td></tr><tr><td style="font-weight:bold;vertical-align:top;">session_id_welcome</td><td style="vertical-align:top;">:</td><td><div>127.0.0.1-3b2c0f38-cf04-4240-ad17-f27775686373<table><tr><td style="font-weight:bold;vertical-align:top;">comment</td><td style="vertical-align:top;">:</td><td><div></div></td></tr><tr><td style="font-weight:bold;vertical-align:top;">domain</td><td style="vertical-align:top;">:</td><td><div></div></td></tr><tr><td style="font-weight:bold;vertical-align:top;">expires</td><td style="vertical-align:top;">:</td><td><div></div></td></tr><tr><td style="font-weight:bold;vertical-align:top;">httponly</td><td style="vertical-align:top;">:</td><td><div></div></td></tr><tr><td style="font-weight:bold;vertical-align:top;">max-age</td><td style="vertical-align:top;">:</td><td><div></div></td></tr><tr><td style="font-weight:bold;vertical-align:top;">path</td><td style="vertical-align:top;">:</td><td><div></div></td></tr><tr><td style="font-weight:bold;vertical-align:top;">secure</td><td style="vertical-align:top;">:</td><td><div></div></td></tr><tr><td style="font-weight:bold;vertical-align:top;">version</td><td style="vertical-align:top;">:</td><td><div></div></td></tr></table></div></td></tr></table></div></td></tr><tr><td style="font-weight:bold;vertical-align:top;">env</td><td style="vertical-align:top;">:</td><td><div><table><tr><td style="font-weight:bold;vertical-align:top;">HTTP_ACCEPT</td><td style="vertical-align:top;">:</td><td><div>*/*</div></td></tr><tr><td style="font-weight:bold;vertical-align:top;">HTTP_ACCEPT_ENCODING</td><td style="vertical-align:top;">:</td><td><div>gzip, deflate, sdch, br</div></td></tr><tr><td style="font-weight:bold;vertical-align:top;">HTTP_ACCEPT_LANGUAGE</td><td style="vertical-align:top;">:</td><td><div>es-ES,es;q=0.8,en;q=0.6</div></td></tr><tr><td style="font-weight:bold;vertical-align:top;">HTTP_CONNECTION</td><td style="vertical-align:top;">:</td><td><div>keep-alive</div></td></tr><tr><td style="font-weight:bold;vertical-align:top;">HTTP_COOKIE</td><td style="vertical-align:top;">:</td><td><div>session_id_resume=127.0.0.1-c8ab86e9-0453-4c3b-8910-d7e8f146ea7d; session_id_wagmore_gilberto=127.0.0.1-28b400d4-d103-4b9e-b34b-69cb0b867a45; session_id_welcome=127.0.0.1-3b2c0f38-cf04-4240-ad17-f27775686373; session_id_admin=127.0.0.1-16c5f293-c019-4c7e-8221-00d6ec6c792c; session_id_wagmore=127.0.0.1-5196f246-5c5a-44d5-a598-20dca84632e5</div></td></tr><tr><td style="font-weight:bold;vertical-align:top;">HTTP_HOST</td><td style="vertical-align:top;">:</td><td><div>127.0.0.1:8000</div></td></tr><tr><td style="font-weight:bold;vertical-align:top;">HTTP_REFERER</td><td style="vertical-align:top;">:</td><td><div>http://127.0.0.1:8000/WagMore/default/show/23/-1</div></td></tr><tr><td style="font-weight:bold;vertical-align:top;">HTTP_USER_AGENT</td><td style="vertical-align:top;">:</td><td><div>Mozilla/5.0 (Macintosh; Intel Mac OS X 10_12_4) AppleWebKit/537.36 (KHTML, like Gecko) Chrome/57.0.2987.133 Safari/537.36</div></td></tr><tr><td style="font-weight:bold;vertical-align:top;">HTTP_X_REQUESTED_WITH</td><td style="vertical-align:top;">:</td><td><div>XMLHttpRequest</div></td></tr><tr><td style="font-weight:bold;vertical-align:top;">PATH_INFO</td><td style="vertical-align:top;">:</td><td><div>/WagMore/default/checkifLiked/23</div></td></tr><tr><td style="font-weight:bold;vertical-align:top;">QUERY_STRING</td><td style="vertical-align:top;">:</td><td><div></div></td></tr><tr><td style="font-weight:bold;vertical-align:top;">REMOTE_ADDR</td><td style="vertical-align:top;">:</td><td><div>127.0.0.1</div></td></tr><tr><td style="font-weight:bold;vertical-align:top;">REMOTE_PORT</td><td style="vertical-align:top;">:</td><td><div>51865</div></td></tr><tr><td style="font-weight:bold;vertical-align:top;">REQUEST_METHOD</td><td style="vertical-align:top;">:</td><td><div>GET</div></td></tr><tr><td style="font-weight:bold;vertical-align:top;">SCRIPT_NAME</td><td style="vertical-align:top;">:</td><td><div></div></td></tr><tr><td style="font-weight:bold;vertical-align:top;">SERVER_NAME</td><td style="vertical-align:top;">:</td><td><div>college9-20-80.resnet.ucsc.edu</div></td></tr><tr><td style="font-weight:bold;vertical-align:top;">SERVER_PORT</td><td style="vertical-align:top;">:</td><td><div>8000</div></td></tr><tr><td style="font-weight:bold;vertical-align:top;">SERVER_PROTOCOL</td><td style="vertical-align:top;">:</td><td><div>HTTP/1.1</div></td></tr><tr><td style="font-weight:bold;vertical-align:top;">SERVER_SOFTWARE</td><td style="vertical-align:top;">:</td><td><div>Rocket 1.2.6</div></td></tr><tr><td style="font-weight:bold;vertical-align:top;">app_folders</td><td style="vertical-align:top;">:</td><td><div>set([&#x27;/Users/admin/UNI/BECAS/California/WINTER/CMPS 183 WA/web2py/web2py.app/Contents/Resources/applications/WagMore/&#x27;, &#x27;/Users/admin/UNI/BECAS/California/WINTER/CMPS 183 WA/web2py/web2py.app/Contents/Resources/applications/WagMore_Gilberto/&#x27;, &#x27;/Users/admin/UNI/BECAS/California/WINTER/CMPS 183 WA/web2py/web2py.app/Contents/Resources/applications/admin/&#x27;, &#x27;/Users/admin/UNI/BECAS/California/WINTER/CMPS 183 WA/web2py/web2py.app/Contents/Resources/applications/resume/&#x27;, &#x27;/Users/admin/UNI/BECAS/California/WINTER/CMPS 183 WA/web2py/web2py.app/Contents/Resources/applications/welcome/&#x27;])</div></td></tr><tr><td style="font-weight:bold;vertical-align:top;">applications_parent</td><td style="vertical-align:top;">:</td><td><div>/Users/admin/UNI/BECAS/California/WINTER/CMPS 183 WA/web2py/web2py.app/Contents/Resources</div></td></tr><tr><td style="font-weight:bold;vertical-align:top;">cmd_args</td><td style="vertical-align:top;">:</td><td><div><table></table></div></td></tr><tr><td style="font-weight:bold;vertical-align:top;">cmd_options</td><td style="vertical-align:top;">:</td><td><div>&lt;Values at 0x10522efc8: {&#x27;verbose&#x27;: False, &#x27;ip&#x27;: &#x27;127.0.0.1&#x27;, &#x27;debuglevel&#x27;: 30, &#x27;with_scheduler&#x27;: False, &#x27;shutdown_timeout&#x27;: 5, &#x27;taskbar&#x27;: False, &#x27;with_coverage&#x27;: False, &#x27;pid_filename&#x27;: &#x27;httpserver.pid&#x27;, &#x27;maxthreads&#x27;: None, &#x27;softcron&#x27;: False, &#x27;server_name&#x27;: &#x27;college9-20-80.resnet.ucsc.edu&#x27;, &#x27;bpython&#x27;: False, &#x27;nogui&#x27;: False, &#x27;port&#x27;: 8000, &#x27;print_errors&#x27;: False, &#x27;extcron&#x27;: False, &#x27;runcron&#x27;: False, &#x27;run_system_tests&#x27;: False, &#x27;test&#x27;: None, &#x27;folder&#x27;: &#x27;/Users/admin/UNI/BECAS/California/WINTER/CMPS 183 WA/web2py/web2py.app/Contents/Resources&#x27;, &#x27;config&#x27;: &#x27;&#x27;, &#x27;minthreads&#x27;: None, &#x27;shell&#x27;: None, &#x27;run&#x27;: &#x27;&#x27;, &#x27;log_filename&#x27;: &#x27;httpserver.log&#x27;, &#x27;profiler_dir&#x27;: None, &#x27;args&#x27;: [&#x27;&#x27;], &#x27;socket_timeout&#x27;: 5, &#x27;ssl_ca_certificate&#x27;: None, &#x27;scheduler&#x27;: None, &#x27;interfaces&#x27;: None, &#x27;ssl_private_key&#x27;: &#x27;&#x27;, &#x27;gae&#x27;: None, &#x27;password&#x27;: &#x27;******&#x27;, &#x27;request_queue_size&#x27;: 5, &#x27;ssl_certificate&#x27;: &#x27;&#x27;, &#x27;cronjob&#x27;: False, &#x27;numthreads&#x27;: None, &#x27;quiet&#x27;: False, &#x27;import_models&#x27;: False, &#x27;timeout&#x27;: 10, &#x27;plain&#x27;: False, &#x27;nobanner&#x27;: False}&gt;</div></td></tr><tr><td style="font-weight:bold;vertical-align:top;">db_sessions</td><td style="vertical-align:top;">:</td><td><div>set([])</div></td></tr><tr><td style="font-weight:bold;vertical-align:top;">debugging</td><td style="vertical-align:top;">:</td><td><div>False</div></td></tr><tr><td style="font-weight:bold;vertical-align:top;">gluon_parent</td><td style="vertical-align:top;">:</td><td><div>/Users/admin/UNI/BECAS/California/WINTER/CMPS 183 WA/web2py/web2py.app/Contents/Resources</div></td></tr><tr><td style="font-weight:bold;vertical-align:top;">http_accept</td><td style="vertical-align:top;">:</td><td><div>*/*</div></td></tr><tr><td style="font-weight:bold;vertical-align:top;">http_accept_encoding</td><td style="vertical-align:top;">:</td><td><div>gzip, deflate, sdch, br</div></td></tr><tr><td style="font-weight:bold;vertical-align:top;">http_accept_language</td><td style="vertical-align:top;">:</td><td><div>es-ES,es;q=0.8,en;q=0.6</div></td></tr><tr><td style="font-weight:bold;vertical-align:top;">http_connection</td><td style="vertical-align:top;">:</td><td><div>keep-alive</div></td></tr><tr><td style="font-weight:bold;vertical-align:top;">http_cookie</td><td style="vertical-align:top;">:</td><td><div>session_id_resume=127.0.0.1-c8ab86e9-0453-4c3b-8910-d7e8f146ea7d; session_id_wagmore_gilberto=127.0.0.1-28b400d4-d103-4b9e-b34b-69cb0b867a45; session_id_welcome=127.0.0.1-3b2c0f38-cf04-4240-ad17-f27775686373; session_id_admin=127.0.0.1-16c5f293-c019-4c7e-8221-00d6ec6c792c; session_id_wagmore=127.0.0.1-5196f246-5c5a-44d5-a598-20dca84632e5</div></td></tr><tr><td style="font-weight:bold;vertical-align:top;">http_host</td><td style="vertical-align:top;">:</td><td><div>127.0.0.1:8000</div></td></tr><tr><td style="font-weight:bold;vertical-align:top;">http_referer</td><td style="vertical-align:top;">:</td><td><div>http://127.0.0.1:8000/WagMore/default/show/23/-1</div></td></tr><tr><td style="font-weight:bold;vertical-align:top;">http_user_agent</td><td style="vertical-align:top;">:</td><td><div>Mozilla/5.0 (Macintosh; Intel Mac OS X 10_12_4) AppleWebKit/537.36 (KHTML, like Gecko) Chrome/57.0.2987.133 Safari/537.36</div></td></tr><tr><td style="font-weight:bold;vertical-align:top;">http_x_requested_with</td><td style="vertical-align:top;">:</td><td><div>XMLHttpRequest</div></td></tr><tr><td style="font-weight:bold;vertical-align:top;">is_jython</td><td style="vertical-align:top;">:</td><td><div>False</div></td></tr><tr><td style="font-weight:bold;vertical-align:top;">is_pypy</td><td style="vertical-align:top;">:</td><td><div>False</div></td></tr><tr><td style="font-weight:bold;vertical-align:top;">is_source</td><td style="vertical-align:top;">:</td><td><div>True</div></td></tr><tr><td style="font-weight:bold;vertical-align:top;">local_hosts</td><td style="vertical-align:top;">:</td><td><div><table><tr><td><div>::1</div></td></tr><tr><td><div>169.233.20.80</div></td></tr><tr><td><div>::ffff:127.0.0.1</div></td></tr><tr><td><div>127.0.0.1</div></td></tr><tr><td><div>college9-20-80.resnet.ucsc.edu</div></td></tr></table></div></td></tr><tr><td style="font-weight:bold;vertical-align:top;">path_info</td><td style="vertical-align:top;">:</td><td><div>/WagMore/default/checkifLiked/23</div></td></tr><tr><td style="font-weight:bold;vertical-align:top;">query_string</td><td style="vertical-align:top;">:</td><td><div></div></td></tr><tr><td style="font-weight:bold;vertical-align:top;">remote_addr</td><td style="vertical-align:top;">:</td><td><div>127.0.0.1</div></td></tr><tr><td style="font-weight:bold;vertical-align:top;">remote_port</td><td style="vertical-align:top;">:</td><td><div>51865</div></td></tr><tr><td style="font-weight:bold;vertical-align:top;">request_method</td><td style="vertical-align:top;">:</td><td><div>GET</div></td></tr><tr><td style="font-weight:bold;vertical-align:top;">request_uri</td><td style="vertical-align:top;">:</td><td><div>/WagMore/default/checkifLiked/23</div></td></tr><tr><td style="font-weight:bold;vertical-align:top;">script_name</td><td style="vertical-align:top;">:</td><td><div></div></td></tr><tr><td style="font-weight:bold;vertical-align:top;">server_name</td><td style="vertical-align:top;">:</td><td><div>college9-20-80.resnet.ucsc.edu</div></td></tr><tr><td style="font-weight:bold;vertical-align:top;">server_port</td><td style="vertical-align:top;">:</td><td><div>8000</div></td></tr><tr><td style="font-weight:bold;vertical-align:top;">server_protocol</td><td style="vertical-align:top;">:</td><td><div>HTTP/1.1</div></td></tr><tr><td style="font-weight:bold;vertical-align:top;">server_software</td><td style="vertical-align:top;">:</td><td><div>Rocket 1.2.6</div></td></tr><tr><td style="font-weight:bold;vertical-align:top;">web2py_path</td><td style="vertical-align:top;">:</td><td><div>/Users/admin/UNI/BECAS/California/WINTER/CMPS 183 WA/web2py/web2py.app/Contents/Resources</div></td></tr><tr><td style="font-weight:bold;vertical-align:top;">web2py_version</td><td style="vertical-align:top;">:</td><td><div>2.14.6-stable+timestamp.2016.05.10.00.21.47</div></td></tr><tr><td style="font-weight:bold;vertical-align:top;">wsgi.errors</td><td style="vertical-align:top;">:</td><td><div>&lt;open file &#x27;&lt;stderr&gt;&#x27;, mode &#x27;w&#x27; at 0x1000ae270&gt;</div></td></tr><tr><td style="font-weight:bold;vertical-align:top;">wsgi.file_wrapper</td><td style="vertical-align:top;">:</td><td><div>&lt;class wsgiref.util.FileWrapper at 0x105258f58&gt;</div></td></tr><tr><td style="font-weight:bold;vertical-align:top;">wsgi.input</td><td style="vertical-align:top;">:</td><td><div>&lt;socket._fileobject object at 0x10b6b88d0&gt;</div></td></tr><tr><td style="font-weight:bold;vertical-align:top;">wsgi.multiprocess</td><td style="vertical-align:top;">:</td><td><div>False</div></td></tr><tr><td style="font-weight:bold;vertical-align:top;">wsgi.multithread</td><td style="vertical-align:top;">:</td><td><div>True</div></td></tr><tr><td style="font-weight:bold;vertical-align:top;">wsgi.run_once</td><td style="vertical-align:top;">:</td><td><div>False</div></td></tr><tr><td style="font-weight:bold;vertical-align:top;">wsgi.url_scheme</td><td style="vertical-align:top;">:</td><td><div>http</div></td></tr><tr><td style="font-weight:bold;vertical-align:top;">wsgi.version</td><td style="vertical-align:top;">:</td><td><div><table><tr><td><div>1</div></td></tr><tr><td><div>0</div></td></tr></table></div></td></tr><tr><td style="font-weight:bold;vertical-align:top;">wsgi_errors</td><td style="vertical-align:top;">:</td><td><div>&lt;open file &#x27;&lt;stderr&gt;&#x27;, mode &#x27;w&#x27; at 0x1000ae270&gt;</div></td></tr><tr><td style="font-weight:bold;vertical-align:top;">wsgi_file_wrapper</td><td style="vertical-align:top;">:</td><td><div>&lt;class wsgiref.util.FileWrapper at 0x105258f58&gt;</div></td></tr><tr><td style="font-weight:bold;vertical-align:top;">wsgi_input</td><td style="vertical-align:top;">:</td><td><div>&lt;socket._fileobject object at 0x10b6b88d0&gt;</div></td></tr><tr><td style="font-weight:bold;vertical-align:top;">wsgi_multiprocess</td><td style="vertical-align:top;">:</td><td><div>False</div></td></tr><tr><td style="font-weight:bold;vertical-align:top;">wsgi_multithread</td><td style="vertical-align:top;">:</td><td><div>True</div></td></tr><tr><td style="font-weight:bold;vertical-align:top;">wsgi_run_once</td><td style="vertical-align:top;">:</td><td><div>False</div></td></tr><tr><td style="font-weight:bold;vertical-align:top;">wsgi_url_scheme</td><td style="vertical-align:top;">:</td><td><div>http</div></td></tr><tr><td style="font-weight:bold;vertical-align:top;">wsgi_version</td><td style="vertical-align:top;">:</td><td><div><table><tr><td><div>1</div></td></tr><tr><td><div>0</div></td></tr></table></div></td></tr></table></div></td></tr><tr><td style="font-weight:bold;vertical-align:top;">extension</td><td style="vertical-align:top;">:</td><td><div>html</div></td></tr><tr><td style="font-weight:bold;vertical-align:top;">folder</td><td style="vertical-align:top;">:</td><td><div>/Users/admin/UNI/BECAS/California/WINTER/CMPS 183 WA/web2py/web2py.app/Contents/Resources/applications/WagMore/</div></td></tr><tr><td style="font-weight:bold;vertical-align:top;">function</td><td style="vertical-align:top;">:</td><td><div>checkifLiked</div></td></tr><tr><td style="font-weight:bold;vertical-align:top;">global_settings</td><td style="vertical-align:top;">:</td><td><div><table><tr><td style="font-weight:bold;vertical-align:top;">app_folders</td><td style="vertical-align:top;">:</td><td><div>set([&#x27;/Users/admin/UNI/BECAS/California/WINTER/CMPS 183 WA/web2py/web2py.app/Contents/Resources/applications/WagMore/&#x27;, &#x27;/Users/admin/UNI/BECAS/California/WINTER/CMPS 183 WA/web2py/web2py.app/Contents/Resources/applications/WagMore_Gilberto/&#x27;, &#x27;/Users/admin/UNI/BECAS/California/WINTER/CMPS 183 WA/web2py/web2py.app/Contents/Resources/applications/admin/&#x27;, &#x27;/Users/admin/UNI/BECAS/California/WINTER/CMPS 183 WA/web2py/web2py.app/Contents/Resources/applications/resume/&#x27;, &#x27;/Users/admin/UNI/BECAS/California/WINTER/CMPS 183 WA/web2py/web2py.app/Contents/Resources/applications/welcome/&#x27;])</div></td></tr><tr><td style="font-weight:bold;vertical-align:top;">applications_parent</td><td style="vertical-align:top;">:</td><td><div>/Users/admin/UNI/BECAS/California/WINTER/CMPS 183 WA/web2py/web2py.app/Contents/Resources</div></td></tr><tr><td style="font-weight:bold;vertical-align:top;">cmd_args</td><td style="vertical-align:top;">:</td><td><div><table></table></div></td></tr><tr><td style="font-weight:bold;vertical-align:top;">cmd_options</td><td style="vertical-align:top;">:</td><td><div>&lt;Values at 0x10522efc8: {&#x27;verbose&#x27;: False, &#x27;ip&#x27;: &#x27;127.0.0.1&#x27;, &#x27;debuglevel&#x27;: 30, &#x27;with_scheduler&#x27;: False, &#x27;shutdown_timeout&#x27;: 5, &#x27;taskbar&#x27;: False, &#x27;with_coverage&#x27;: False, &#x27;pid_filename&#x27;: &#x27;httpserver.pid&#x27;, &#x27;maxthreads&#x27;: None, &#x27;softcron&#x27;: False, &#x27;server_name&#x27;: &#x27;college9-20-80.resnet.ucsc.edu&#x27;, &#x27;bpython&#x27;: False, &#x27;nogui&#x27;: False, &#x27;port&#x27;: 8000, &#x27;print_errors&#x27;: False, &#x27;extcron&#x27;: False, &#x27;runcron&#x27;: False, &#x27;run_system_tests&#x27;: False, &#x27;test&#x27;: None, &#x27;folder&#x27;: &#x27;/Users/admin/UNI/BECAS/California/WINTER/CMPS 183 WA/web2py/web2py.app/Contents/Resources&#x27;, &#x27;config&#x27;: &#x27;&#x27;, &#x27;minthreads&#x27;: None, &#x27;shell&#x27;: None, &#x27;run&#x27;: &#x27;&#x27;, &#x27;log_filename&#x27;: &#x27;httpserver.log&#x27;, &#x27;profiler_dir&#x27;: None, &#x27;args&#x27;: [&#x27;&#x27;], &#x27;socket_timeout&#x27;: 5, &#x27;ssl_ca_certificate&#x27;: None, &#x27;scheduler&#x27;: None, &#x27;interfaces&#x27;: None, &#x27;ssl_private_key&#x27;: &#x27;&#x27;, &#x27;gae&#x27;: None, &#x27;password&#x27;: &#x27;******&#x27;, &#x27;request_queue_size&#x27;: 5, &#x27;ssl_certificate&#x27;: &#x27;&#x27;, &#x27;cronjob&#x27;: False, &#x27;numthreads&#x27;: None, &#x27;quiet&#x27;: False, &#x27;import_models&#x27;: False, &#x27;timeout&#x27;: 10, &#x27;plain&#x27;: False, &#x27;nobanner&#x27;: False}&gt;</div></td></tr><tr><td style="font-weight:bold;vertical-align:top;">db_sessions</td><td style="vertical-align:top;">:</td><td><div>set([])</div></td></tr><tr><td style="font-weight:bold;vertical-align:top;">debugging</td><td style="vertical-align:top;">:</td><td><div>False</div></td></tr><tr><td style="font-weight:bold;vertical-align:top;">gluon_parent</td><td style="vertical-align:top;">:</td><td><div>/Users/admin/UNI/BECAS/California/WINTER/CMPS 183 WA/web2py/web2py.app/Contents/Resources</div></td></tr><tr><td style="font-weight:bold;vertical-align:top;">is_jython</td><td style="vertical-align:top;">:</td><td><div>False</div></td></tr><tr><td style="font-weight:bold;vertical-align:top;">is_pypy</td><td style="vertical-align:top;">:</td><td><div>False</div></td></tr><tr><td style="font-weight:bold;vertical-align:top;">is_source</td><td style="vertical-align:top;">:</td><td><div>True</div></td></tr><tr><td style="font-weight:bold;vertical-align:top;">local_hosts</td><td style="vertical-align:top;">:</td><td><div><table><tr><td><div>::1</div></td></tr><tr><td><div>169.233.20.80</div></td></tr><tr><td><div>::ffff:127.0.0.1</div></td></tr><tr><td><div>127.0.0.1</div></td></tr><tr><td><div>college9-20-80.resnet.ucsc.edu</div></td></tr></table></div></td></tr><tr><td style="font-weight:bold;vertical-align:top;">web2py_version</td><td style="vertical-align:top;">:</td><td><div>2.14.6-stable+timestamp.2016.05.10.00.21.47</div></td></tr></table></div></td></tr><tr><td style="font-weight:bold;vertical-align:top;">is_https</td><td style="vertical-align:top;">:</td><td><div>False</div></td></tr><tr><td style="font-weight:bold;vertical-align:top;">is_local</td><td style="vertical-align:top;">:</td><td><div>True</div></td></tr><tr><td style="font-weight:bold;vertical-align:top;">is_restful</td><td style="vertical-align:top;">:</td><td><div>False</div></td></tr><tr><td style="font-weight:bold;vertical-align:top;">is_scheduler</td><td style="vertical-align:top;">:</td><td><div>False</div></td></tr><tr><td style="font-weight:bold;vertical-align:top;">is_shell</td><td style="vertical-align:top;">:</td><td><div>False</div></td></tr><tr><td style="font-weight:bold;vertical-align:top;">now</td><td style="vertical-align:top;">:</td><td><div>datetime.datetime(2017, 4, 28, 20, 36, 49, 796757)</div></td></tr><tr><td style="font-weight:bold;vertical-align:top;">raw_args</td><td style="vertical-align:top;">:</td><td><div>23</div></td></tr><tr><td style="font-weight:bold;vertical-align:top;">raw_extension</td><td style="vertical-align:top;">:</td><td><div>None</div></td></tr><tr><td style="font-weight:bold;vertical-align:top;">url</td><td style="vertical-align:top;">:</td><td><div>/WagMore/default/checkifLiked/23</div></td></tr><tr><td style="font-weight:bold;vertical-align:top;">utcnow</td><td style="vertical-align:top;">:</td><td><div>datetime.datetime(2017, 4, 29, 3, 36, 49, 796765)</div></td></tr><tr><td style="font-weight:bold;vertical-align:top;">wsgi</td><td style="vertical-align:top;">:</td><td><div>&lt;gluon.main.LazyWSGI object at 0x108ad34d0&gt;</div></td></tr></table></div>'
tRp58
sS'frames'
p59
(lp60
(dp61
S'file'
p62
S'/Users/admin/UNI/BECAS/California/WINTER/CMPS 183 WA/web2py/web2py.app/Contents/Resources/gluon/restricted.py'
p63
sS'dump'
p64
(dp65
sS'lnum'
p66
I227
sS'lines'
p67
(dp68
I224
S'            ccode = code'
p69
sI225
S'        else:'
p70
sI226
S'            ccode = compile2(code, layer)'
p71
sI227
S'        exec ccode in environment'
p72
sI228
S'    except HTTP:'
p73
sI229
S'        raise'
p74
sI230
S'    except RestrictedError:'
p75
sI231
S'        # do not encapsulate (obfuscate) the original RestrictedError'
p76
sI222
S'    try:'
p77
sI223
S'        if isinstance(code, types.CodeType):'
p78
ssS'call'
p79
S"(code='from datetime import datetime\\nimport maskingpers...)\\n\\nresponse._vars=response._caller(checkifLiked)\\n', environment={'A': <class 'gluon.html.A'>, 'ANY_OF': <class 'gluon.validators.ANY_OF'>, 'ASSIGNJS': <function ASSIGNJS>, 'AppConfig': <function AppConfig>, 'Auth': <class 'gluon.tools.Auth'>, 'B': <class 'gluon.html.B'>, 'BEAUTIFY': <class 'gluon.html.BEAUTIFY'>, 'BODY': <class 'gluon.html.BODY'>, 'BR': <class 'gluon.html.BR'>, 'BUTTON': <class 'gluon.html.BUTTON'>, ...}, layer='/Users/admin/UNI/BECAS/California/WINTER/CMPS 18...urces/applications/WagMore/controllers/default.py')"
p80
sS'func'
p81
S'restricted'
p82
sa(dp83
g62
S'/Users/admin/UNI/BECAS/California/WINTER/CMPS 183 WA/web2py/web2py.app/Contents/Resources/applications/WagMore/controllers/default.py'
p84
sg64
(dp85
sg66
I683
sg67
(dp86
I672
S''
sI673
S''
sI674
S'def call():'
p87
sI675
S'    """'
p88
sI676
S'    exposes services. for example:'
p89
sI677
S'    http://..../[app]/default/call/jsonrpc'
p90
sI678
S'    decorate with @services.jsonrpc the functions to expose'
p91
sI679
S'    supports xml, json, xmlrpc, jsonrpc, amfrpc, rss, csv'
p92
sI680
S'    """'
p93
sI681
S'    return service()'
p94
ssg79
S'()'
p95
sg81
S'<module>'
p96
sa(dp97
g62
S'/Users/admin/UNI/BECAS/California/WINTER/CMPS 183 WA/web2py/web2py.app/Contents/Resources/gluon/globals.py'
p98
sg64
(dp99
sg66
I417
sg67
(dp100
I416
S'        self._vars = None'
p101
sI417
S'        self._caller = lambda f: f()'
p102
sI418
S'        self._view_environment = None'
p103
sI419
S'        self._custom_commit = None'
p104
sI420
S'        self._custom_rollback = None'
p105
sI421
S"        self.generic_patterns = ['*']"
p106
sI412
S"        self.flash = ''            # used by the default view layout"
p107
sI413
S'        self.meta = Storage()      # used by web2py_ajax.html'
p108
sI414
S'        self.menu = []             # used by the default view layout'
p109
sI415
S'        self.files = []            # used by web2py_ajax.html'
p110
ssg79
S'(f=<function checkifLiked>)'
p111
sg81
S'<lambda>'
p112
sa(dp113
g62
S'/Users/admin/UNI/BECAS/California/WINTER/CMPS 183 WA/web2py/web2py.app/Contents/Resources/applications/WagMore/controllers/default.py'
p114
sg64
(dp115
sg66
I342
sg67
(dp116
I337
S'def checkifLiked():'
p117
sI338
S'    matches = db((db.matchTable.idFromMatch == auth.user.id) & (db.matchTable.idToMatch == request.args(0, cast=int)))'
p118
sI339
S'    matches = matches.select(db.matchTable.ALL)'
p119
sI340
S'    match = matches.first()'
p120
sI341
S''
sI342
S'    return match.liked'
p121
sI343
S''
sI344
S''
sI345
S''
sI346
S''
ssg79
S'()'
p122
sg81
S'checkifLiked'
p123
sasS'pyver'
p124
S'Python 2.7.3: /Users/admin/UNI/BECAS/California/WINTER/CMPS 183 WA/web2py/web2py.app/Contents/MacOS/python (prefix: /Users/admin/UNI/BECAS/California/WINTER/CMPS 183 WA/web2py/web2py.app/Contents/Resources)'
p125
sS'session'
p126
g57
(S's\xe8\x08\x00\x00<div><table><tr><td style="font-weight:bold;vertical-align:top;">auth</td><td style="vertical-align:top;">:</td><td><div><table><tr><td style="font-weight:bold;vertical-align:top;">expiration</td><td style="vertical-align:top;">:</td><td><div>3600</div></td></tr><tr><td style="font-weight:bold;vertical-align:top;">hmac_key</td><td style="vertical-align:top;">:</td><td><div>857102e7-85fa-4c14-8ec8-a74479b2e0db</div></td></tr><tr><td style="font-weight:bold;vertical-align:top;">last_visit</td><td style="vertical-align:top;">:</td><td><div>datetime.datetime(2017, 4, 28, 20, 36, 33, 336170)</div></td></tr><tr><td style="font-weight:bold;vertical-align:top;">remember_me</td><td style="vertical-align:top;">:</td><td><div>False</div></td></tr><tr><td style="font-weight:bold;vertical-align:top;">user</td><td style="vertical-align:top;">:</td><td><div><table><tr><td style="font-weight:bold;vertical-align:top;">email</td><td style="vertical-align:top;">:</td><td><div>test@gmail.com</div></td></tr><tr><td style="font-weight:bold;vertical-align:top;">first_name</td><td style="vertical-align:top;">:</td><td><div>test</div></td></tr><tr><td style="font-weight:bold;vertical-align:top;">id</td><td style="vertical-align:top;">:</td><td><div>23L</div></td></tr><tr><td style="font-weight:bold;vertical-align:top;">last_name</td><td style="vertical-align:top;">:</td><td><div>test_1</div></td></tr><tr><td style="font-weight:bold;vertical-align:top;">registration_id</td><td style="vertical-align:top;">:</td><td><div></div></td></tr><tr><td style="font-weight:bold;vertical-align:top;">registration_key</td><td style="vertical-align:top;">:</td><td><div></div></td></tr><tr><td style="font-weight:bold;vertical-align:top;">reset_password_key</td><td style="vertical-align:top;">:</td><td><div></div></td></tr></table></div></td></tr><tr><td style="font-weight:bold;vertical-align:top;">user_groups</td><td style="vertical-align:top;">:</td><td><div><table><tr><td style="font-weight:bold;vertical-align:top;">24</td><td style="vertical-align:top;">:</td><td><div>user_23</div></td></tr></table></div></td></tr></table></div></td></tr><tr><td style="font-weight:bold;vertical-align:top;">flash</td><td style="vertical-align:top;">:</td><td><div>None</div></td></tr></table></div>'
tRp127
sS'etype'
p128
S"<type 'exceptions.AttributeError'>"
p129
sS'date'
p130
S'Fri Apr 28 20:36:49 2017'
p131
sS'response'
p132
g57
(S'sP@\x00\x00<div><table><tr><td style="font-weight:bold;vertical-align:top;">body</td><td style="vertical-align:top;">:</td><td><div>&lt;cStringIO.StringO object at 0x108dbbae8&gt;</div></td></tr><tr><td style="font-weight:bold;vertical-align:top;">cookies</td><td style="vertical-align:top;">:</td><td><div><table><tr><td style="font-weight:bold;vertical-align:top;">session_id_wagmore</td><td style="vertical-align:top;">:</td><td><div>127.0.0.1-5196f246-5c5a-44d5-a598-20dca84632e5<table><tr><td style="font-weight:bold;vertical-align:top;">comment</td><td style="vertical-align:top;">:</td><td><div></div></td></tr><tr><td style="font-weight:bold;vertical-align:top;">domain</td><td style="vertical-align:top;">:</td><td><div></div></td></tr><tr><td style="font-weight:bold;vertical-align:top;">expires</td><td style="vertical-align:top;">:</td><td><div></div></td></tr><tr><td style="font-weight:bold;vertical-align:top;">httponly</td><td style="vertical-align:top;">:</td><td><div></div></td></tr><tr><td style="font-weight:bold;vertical-align:top;">max-age</td><td style="vertical-align:top;">:</td><td><div></div></td></tr><tr><td style="font-weight:bold;vertical-align:top;">path</td><td style="vertical-align:top;">:</td><td><div>/</div></td></tr><tr><td style="font-weight:bold;vertical-align:top;">secure</td><td style="vertical-align:top;">:</td><td><div></div></td></tr><tr><td style="font-weight:bold;vertical-align:top;">version</td><td style="vertical-align:top;">:</td><td><div></div></td></tr></table></div></td></tr></table></div></td></tr><tr><td style="font-weight:bold;vertical-align:top;">delimiters</td><td style="vertical-align:top;">:</td><td><div><table><tr><td><div>{{</div></td></tr><tr><td><div>}}</div></td></tr></table></div></td></tr><tr><td style="font-weight:bold;vertical-align:top;">files</td><td style="vertical-align:top;">:</td><td><div><table></table></div></td></tr><tr><td style="font-weight:bold;vertical-align:top;">flash</td><td style="vertical-align:top;">:</td><td><div></div></td></tr><tr><td style="font-weight:bold;vertical-align:top;">form_label_separator</td><td style="vertical-align:top;">:</td><td><div></div></td></tr><tr><td style="font-weight:bold;vertical-align:top;">formstyle</td><td style="vertical-align:top;">:</td><td><div>bootstrap3_inline</div></td></tr><tr><td style="font-weight:bold;vertical-align:top;">generic_patterns</td><td style="vertical-align:top;">:</td><td><div><table><tr><td><div>*</div></td></tr></table></div></td></tr><tr><td style="font-weight:bold;vertical-align:top;">google_analytics_id</td><td style="vertical-align:top;">:</td><td><div>None</div></td></tr><tr><td style="font-weight:bold;vertical-align:top;">headers</td><td style="vertical-align:top;">:</td><td><div><table><tr><td style="font-weight:bold;vertical-align:top;">X-Powered-By</td><td style="vertical-align:top;">:</td><td><div>web2py</div></td></tr></table></div></td></tr><tr><td style="font-weight:bold;vertical-align:top;">logo</td><td style="vertical-align:top;">:</td><td><div><a class="navbar-brand" href="http://www.web2py.com/" id="web2py-logo"><b>web<span>2</span>py</b>&trade;&nbsp;</a></div></td></tr><tr><td style="font-weight:bold;vertical-align:top;">menu</td><td style="vertical-align:top;">:</td><td><div><table><tr><td><div><table><tr><td><div>Inicio</div></td></tr><tr><td><div>False</div></td></tr><tr><td><div>/WagMore/default/index</div></td></tr><tr><td><div><table></table></div></td></tr></table></div></td></tr><tr><td><div><table><tr><td><div>Mis Sitios</div></td></tr><tr><td><div>False</div></td></tr><tr><td><div>/admin/default/site</div></td></tr></table></div></td></tr><tr><td><div><table><tr><td><div>Esta Aplicaci\xc3\xb3n</div></td></tr><tr><td><div>False</div></td></tr><tr><td><div>#</div></td></tr><tr><td><div><table><tr><td><div><table><tr><td><div>Design</div></td></tr><tr><td><div>False</div></td></tr><tr><td><div>/admin/default/design/WagMore</div></td></tr></table></div></td></tr><tr><td><div><li class="divider"></li></div></td></tr><tr><td><div><table><tr><td><div>Controlador</div></td></tr><tr><td><div>False</div></td></tr><tr><td><div>/admin/default/edit/WagMore/controllers/default.py</div></td></tr></table></div></td></tr><tr><td><div><table><tr><td><div>Vista</div></td></tr><tr><td><div>False</div></td></tr><tr><td><div>/admin/default/edit/WagMore/views/default/checkifLiked.html</div></td></tr></table></div></td></tr><tr><td><div><table><tr><td><div>Modelo BDD</div></td></tr><tr><td><div>False</div></td></tr><tr><td><div>/admin/default/edit/WagMore/models/db.py</div></td></tr></table></div></td></tr><tr><td><div><table><tr><td><div>Modelo "menu"</div></td></tr><tr><td><div>False</div></td></tr><tr><td><div>/admin/default/edit/WagMore/models/menu.py</div></td></tr></table></div></td></tr><tr><td><div><table><tr><td><div>Config.ini</div></td></tr><tr><td><div>False</div></td></tr><tr><td><div>/admin/default/edit/WagMore/private/appconfig.ini</div></td></tr></table></div></td></tr><tr><td><div><table><tr><td><div>Dise\xc3\xb1o de p\xc3\xa1gina</div></td></tr><tr><td><div>False</div></td></tr><tr><td><div>/admin/default/edit/WagMore/views/layout.html</div></td></tr></table></div></td></tr><tr><td><div><table><tr><td><div>Hoja de estilo</div></td></tr><tr><td><div>False</div></td></tr><tr><td><div>/admin/default/edit/WagMore/static/css/web2py-bootstrap3.css</div></td></tr></table></div></td></tr><tr><td><div><table><tr><td><div>Base de datos</div></td></tr><tr><td><div>False</div></td></tr><tr><td><div>/WagMore/appadmin/index</div></td></tr></table></div></td></tr><tr><td><div><table><tr><td><div>Errores</div></td></tr><tr><td><div>False</div></td></tr><tr><td><div>/admin/default/errors/WagMore</div></td></tr></table></div></td></tr><tr><td><div><table><tr><td><div>Acerca de</div></td></tr><tr><td><div>False</div></td></tr><tr><td><div>/admin/default/about/WagMore</div></td></tr></table></div></td></tr></table></div></td></tr></table></div></td></tr><tr><td><div><table><tr><td><div>web2py.com</div></td></tr><tr><td><div>False</div></td></tr><tr><td><div>#</div></td></tr><tr><td><div><table><tr><td><div><table><tr><td><div>Descargas</div></td></tr><tr><td><div>False</div></td></tr><tr><td><div>http://www.web2py.com/examples/default/download</div></td></tr></table></div></td></tr><tr><td><div><table><tr><td><div>Soporte</div></td></tr><tr><td><div>False</div></td></tr><tr><td><div>http://www.web2py.com/examples/default/support</div></td></tr></table></div></td></tr><tr><td><div><table><tr><td><div>Demostraci\xc3\xb3n</div></td></tr><tr><td><div>False</div></td></tr><tr><td><div>http://web2py.com/demo_admin</div></td></tr></table></div></td></tr><tr><td><div><table><tr><td><div>Ejemplos R\xc3\xa1pidos</div></td></tr><tr><td><div>False</div></td></tr><tr><td><div>http://web2py.com/examples/default/examples</div></td></tr></table></div></td></tr><tr><td><div><table><tr><td><div>FAQ</div></td></tr><tr><td><div>False</div></td></tr><tr><td><div>http://web2py.com/AlterEgo</div></td></tr></table></div></td></tr><tr><td><div><table><tr><td><div>V\xc3\xaddeos</div></td></tr><tr><td><div>False</div></td></tr><tr><td><div>http://www.web2py.com/examples/default/videos/</div></td></tr></table></div></td></tr><tr><td><div><table><tr><td><div>Aplicaciones Libres</div></td></tr><tr><td><div>False</div></td></tr><tr><td><div>http://web2py.com/appliances</div></td></tr></table></div></td></tr><tr><td><div><table><tr><td><div>Plugins</div></td></tr><tr><td><div>False</div></td></tr><tr><td><div>http://web2py.com/plugins</div></td></tr></table></div></td></tr><tr><td><div><table><tr><td><div>Recetas</div></td></tr><tr><td><div>False</div></td></tr><tr><td><div>http://web2pyslices.com/</div></td></tr></table></div></td></tr></table></div></td></tr></table></div></td></tr><tr><td><div><table><tr><td><div>Documentaci\xc3\xb3n</div></td></tr><tr><td><div>False</div></td></tr><tr><td><div>#</div></td></tr><tr><td><div><table><tr><td><div><table><tr><td><div>Online book</div></td></tr><tr><td><div>False</div></td></tr><tr><td><div>http://www.web2py.com/book</div></td></tr></table></div></td></tr><tr><td><div><li class="divider"></li></div></td></tr><tr><td><div><table><tr><td><div>Prefacio</div></td></tr><tr><td><div>False</div></td></tr><tr><td><div>http://www.web2py.com/book/default/chapter/00</div></td></tr></table></div></td></tr><tr><td><div><table><tr><td><div>Introducci\xc3\xb3n</div></td></tr><tr><td><div>False</div></td></tr><tr><td><div>http://www.web2py.com/book/default/chapter/01</div></td></tr></table></div></td></tr><tr><td><div><table><tr><td><div>Python</div></td></tr><tr><td><div>False</div></td></tr><tr><td><div>http://www.web2py.com/book/default/chapter/02</div></td></tr></table></div></td></tr><tr><td><div><table><tr><td><div>Resumen</div></td></tr><tr><td><div>False</div></td></tr><tr><td><div>http://www.web2py.com/book/default/chapter/03</div></td></tr></table></div></td></tr><tr><td><div><table><tr><td><div>El N\xc3\xbacleo</div></td></tr><tr><td><div>False</div></td></tr><tr><td><div>http://www.web2py.com/book/default/chapter/04</div></td></tr></table></div></td></tr><tr><td><div><table><tr><td><div>Las Vistas</div></td></tr><tr><td><div>False</div></td></tr><tr><td><div>http://www.web2py.com/book/default/chapter/05</div></td></tr></table></div></td></tr><tr><td><div><table><tr><td><div>Base de datos</div></td></tr><tr><td><div>False</div></td></tr><tr><td><div>http://www.web2py.com/book/default/chapter/06</div></td></tr></table></div></td></tr><tr><td><div><table><tr><td><div>Formularios y validadores</div></td></tr><tr><td><div>False</div></td></tr><tr><td><div>http://www.web2py.com/book/default/chapter/07</div></td></tr></table></div></td></tr><tr><td><div><table><tr><td><div>Correo electr\xc3\xb3nico y SMS</div></td></tr><tr><td><div>False</div></td></tr><tr><td><div>http://www.web2py.com/book/default/chapter/08</div></td></tr></table></div></td></tr><tr><td><div><table><tr><td><div>Control de Acceso</div></td></tr><tr><td><div>False</div></td></tr><tr><td><div>http://www.web2py.com/book/default/chapter/09</div></td></tr></table></div></td></tr><tr><td><div><table><tr><td><div>Servicios</div></td></tr><tr><td><div>False</div></td></tr><tr><td><div>http://www.web2py.com/book/default/chapter/10</div></td></tr></table></div></td></tr><tr><td><div><table><tr><td><div>Recetas AJAX</div></td></tr><tr><td><div>False</div></td></tr><tr><td><div>http://www.web2py.com/book/default/chapter/11</div></td></tr></table></div></td></tr><tr><td><div><table><tr><td><div>Componentes y Plugins</div></td></tr><tr><td><div>False</div></td></tr><tr><td><div>http://www.web2py.com/book/default/chapter/12</div></td></tr></table></div></td></tr><tr><td><div><table><tr><td><div>Recetas de despliegue</div></td></tr><tr><td><div>False</div></td></tr><tr><td><div>http://www.web2py.com/book/default/chapter/13</div></td></tr></table></div></td></tr><tr><td><div><table><tr><td><div>Otras Recetas</div></td></tr><tr><td><div>False</div></td></tr><tr><td><div>http://www.web2py.com/book/default/chapter/14</div></td></tr></table></div></td></tr><tr><td><div><table><tr><td><div>Helping web2py</div></td></tr><tr><td><div>False</div></td></tr><tr><td><div>http://www.web2py.com/book/default/chapter/15</div></td></tr></table></div></td></tr><tr><td><div><table><tr><td><div>Buy web2py\'s book</div></td></tr><tr><td><div>False</div></td></tr><tr><td><div>http://stores.lulu.com/web2py</div></td></tr></table></div></td></tr></table></div></td></tr></table></div></td></tr><tr><td><div><table><tr><td><div>Comunidad</div></td></tr><tr><td><div>False</div></td></tr><tr><td><div>None</div></td></tr><tr><td><div><table><tr><td><div><table><tr><td><div>Grupos</div></td></tr><tr><td><div>False</div></td></tr><tr><td><div>http://www.web2py.com/examples/default/usergroups</div></td></tr></table></div></td></tr><tr><td><div><table><tr><td><div>Twitter</div></td></tr><tr><td><div>False</div></td></tr><tr><td><div>http://twitter.com/web2py</div></td></tr></table></div></td></tr><tr><td><div><table><tr><td><div>Chat en vivo</div></td></tr><tr><td><div>False</div></td></tr><tr><td><div>http://webchat.freenode.net/?channels=web2py</div></td></tr></table></div></td></tr></table></div></td></tr></table></div></td></tr></table></div></td></tr><tr><td style="font-weight:bold;vertical-align:top;">meta</td><td style="vertical-align:top;">:</td><td><div><table><tr><td style="font-weight:bold;vertical-align:top;">author</td><td style="vertical-align:top;">:</td><td><div>Your Name &lt;you@example.com&gt;</div></td></tr><tr><td style="font-weight:bold;vertical-align:top;">description</td><td style="vertical-align:top;">:</td><td><div>a cool new app</div></td></tr><tr><td style="font-weight:bold;vertical-align:top;">generator</td><td style="vertical-align:top;">:</td><td><div>Web2py Web Framework</div></td></tr><tr><td style="font-weight:bold;vertical-align:top;">keywords</td><td style="vertical-align:top;">:</td><td><div><table><tr><td><div>web2py</div></td></tr><tr><td><div>python</div></td></tr><tr><td><div>framework</div></td></tr></table></div></td></tr></table></div></td></tr><tr><td style="font-weight:bold;vertical-align:top;">models_to_run</td><td style="vertical-align:top;">:</td><td><div><table><tr><td><div>^\\w+\\.py$</div></td></tr><tr><td><div>^default/\\w+\\.py$</div></td></tr><tr><td><div>^default/checkifLiked/\\w+\\.py$</div></td></tr></table></div></td></tr><tr><td style="font-weight:bold;vertical-align:top;">postprocessing</td><td style="vertical-align:top;">:</td><td><div><table></table></div></td></tr><tr><td style="font-weight:bold;vertical-align:top;">session_client</td><td style="vertical-align:top;">:</td><td><div>127.0.0.1</div></td></tr><tr><td style="font-weight:bold;vertical-align:top;">session_cookie_compression_level</td><td style="vertical-align:top;">:</td><td><div>None</div></td></tr><tr><td style="font-weight:bold;vertical-align:top;">session_cookie_expires</td><td style="vertical-align:top;">:</td><td><div>None</div></td></tr><tr><td style="font-weight:bold;vertical-align:top;">session_data_name</td><td style="vertical-align:top;">:</td><td><div>session_data_wagmore</div></td></tr><tr><td style="font-weight:bold;vertical-align:top;">session_file</td><td style="vertical-align:top;">:</td><td><div>&lt;open file &#x27;/Users/admin/UNI/BECAS/California/WINTER/CMPS 183 WA/web2py/web2py.app/Contents/Resources/applications/WagMore/sessions/0e0/0f8/127.0.0.1-5196f246-5c5a-44d5-a598-20dca84632e5&#x27;, mode &#x27;rb+&#x27; at 0x10b69e660&gt;</div></td></tr><tr><td style="font-weight:bold;vertical-align:top;">session_filename</td><td style="vertical-align:top;">:</td><td><div>/Users/admin/UNI/BECAS/California/WINTER/CMPS 183 WA/web2py/web2py.app/Contents/Resources/applications/WagMore/sessions/127.0.0.1-5196f246-5c5a-44d5-a598-20dca84632e5</div></td></tr><tr><td style="font-weight:bold;vertical-align:top;">session_hash</td><td style="vertical-align:top;">:</td><td><div>ab9af2b87f72b14d3ce85c962a7d15b2</div></td></tr><tr><td style="font-weight:bold;vertical-align:top;">session_id</td><td style="vertical-align:top;">:</td><td><div>127.0.0.1-5196f246-5c5a-44d5-a598-20dca84632e5</div></td></tr><tr><td style="font-weight:bold;vertical-align:top;">session_id_name</td><td style="vertical-align:top;">:</td><td><div>session_id_wagmore</div></td></tr><tr><td style="font-weight:bold;vertical-align:top;">session_locked</td><td style="vertical-align:top;">:</td><td><div>True</div></td></tr><tr><td style="font-weight:bold;vertical-align:top;">session_masterapp</td><td style="vertical-align:top;">:</td><td><div>WagMore</div></td></tr><tr><td style="font-weight:bold;vertical-align:top;">session_new</td><td style="vertical-align:top;">:</td><td><div>False</div></td></tr><tr><td style="font-weight:bold;vertical-align:top;">session_storage_type</td><td style="vertical-align:top;">:</td><td><div>file</div></td></tr><tr><td style="font-weight:bold;vertical-align:top;">status</td><td style="vertical-align:top;">:</td><td><div>200</div></td></tr><tr><td style="font-weight:bold;vertical-align:top;">subtitle</td><td style="vertical-align:top;">:</td><td><div></div></td></tr><tr><td style="font-weight:bold;vertical-align:top;">title</td><td style="vertical-align:top;">:</td><td><div>Wagmore</div></td></tr><tr><td style="font-weight:bold;vertical-align:top;">view</td><td style="vertical-align:top;">:</td><td><div>default/checkifLiked.html</div></td></tr></table></div>'
tRp133
sS'locals'
p134
(dp135
S'matches'
p136
S'<Rows (0)>'
p137
sS'match'
p138
S'None'
p139
sssS'traceback'
p140
S'Traceback (most recent call last):\n  File "/Users/admin/UNI/BECAS/California/WINTER/CMPS 183 WA/web2py/web2py.app/Contents/Resources/gluon/restricted.py", line 227, in restricted\n  File "/Users/admin/UNI/BECAS/California/WINTER/CMPS 183 WA/web2py/web2py.app/Contents/Resources/applications/WagMore/controllers/default.py", line 683, in <module>\n  File "/Users/admin/UNI/BECAS/California/WINTER/CMPS 183 WA/web2py/web2py.app/Contents/Resources/gluon/globals.py", line 417, in <lambda>\n  File "/Users/admin/UNI/BECAS/California/WINTER/CMPS 183 WA/web2py/web2py.app/Contents/Resources/applications/WagMore/controllers/default.py", line 342, in checkifLiked\nAttributeError: \'NoneType\' object has no attribute \'liked\'\n'
p141
s.